target datalayout = "e-m:e-p270:32:32-p271:32:32-p272:64:64-i64:64-i128:128-f80:128-n8:16:32:64-S128"
target triple = "x86_64-pc-linux-gnu"

%struct.commit = type { %struct.object, i64, ptr, ptr, i32 }
%struct.object = type { i32, %struct.object_id }
%struct.object_id = type { [32 x i8], i32 }
%struct.commit_list = type { ptr, ptr }

; Function Attrs: nounwind uwtable
define internal void @add_pending_object_with_mode(ptr noundef %0, ptr noundef %1, ptr noundef %2, i32 noundef %3) #0 {
  %5 = alloca ptr, align 8
  %6 = alloca ptr, align 8
  %7 = alloca ptr, align 8
  %8 = alloca i32, align 4
  store ptr %0, ptr %5, align 8, !tbaa !88
  store ptr %1, ptr %6, align 8, !tbaa !37
  store ptr %2, ptr %7, align 8, !tbaa !39
  store i32 %3, ptr %8, align 4, !tbaa !9
  %9 = load ptr, ptr %5, align 8, !tbaa !88
  %10 = load ptr, ptr %6, align 8, !tbaa !37
  %11 = load ptr, ptr %7, align 8, !tbaa !39
  %12 = load i32, ptr %8, align 4, !tbaa !9
  call void @add_pending_object_with_path(ptr noundef %9, ptr noundef %10, ptr noundef %11, i32 noundef %12, ptr noundef null)
  ret void
}

; Function Attrs: nounwind uwtable
define dso_local void @add_pending_object(ptr noundef %0, ptr noundef %1, ptr noundef %2) #0 {
  %4 = alloca ptr, align 8
  %5 = alloca ptr, align 8
  %6 = alloca ptr, align 8
  store ptr %0, ptr %4, align 8, !tbaa !88
  store ptr %1, ptr %5, align 8, !tbaa !37
  store ptr %2, ptr %6, align 8, !tbaa !39
  %7 = load ptr, ptr %4, align 8, !tbaa !88
  %8 = load ptr, ptr %5, align 8, !tbaa !37
  %9 = load ptr, ptr %6, align 8, !tbaa !39
  call void @add_pending_object_with_mode(ptr noundef %7, ptr noundef %8, ptr noundef %9, i32 noundef 12288)
  ret void
}

; Function Attrs: nounwind uwtable
define internal void @add_pending_commit_list(ptr noundef %0, ptr noundef %1, i32 noundef %2) #0 {
  %4 = alloca ptr, align 8
  %5 = alloca ptr, align 8
  %6 = alloca i32, align 4
  %7 = alloca ptr, align 8
  store ptr %0, ptr %4, align 8, !tbaa !88
  store ptr %1, ptr %5, align 8, !tbaa !91
  store i32 %2, ptr %6, align 4, !tbaa !9
  br label %8

8:                                                ; preds = %11, %3
  %9 = load ptr, ptr %5, align 8, !tbaa !91
  %10 = icmp ne ptr %9, null
  br i1 %10, label %11, label %34

11:                                               ; preds = %8
  call void @llvm.lifetime.start.p0(i64 8, ptr %7) #12
  %12 = load ptr, ptr %5, align 8, !tbaa !91
  %13 = getelementptr inbounds nuw %struct.commit_list, ptr %12, i32 0, i32 0
  %14 = load ptr, ptr %13, align 8, !tbaa !92
  %15 = getelementptr inbounds nuw %struct.commit, ptr %14, i32 0, i32 0
  store ptr %15, ptr %7, align 8, !tbaa !37
  %16 = load i32, ptr %6, align 4, !tbaa !9
  %17 = load ptr, ptr %7, align 8, !tbaa !37
  %18 = load i32, ptr %17, align 4
  %19 = lshr i32 %18, 4
  %20 = or i32 %19, %16
  %21 = load i32, ptr %17, align 4
  %22 = and i32 %20, 268435455
  %23 = shl i32 %22, 4
  %24 = and i32 %21, 15
  %25 = or i32 %24, %23
  store i32 %25, ptr %17, align 4
  %26 = load ptr, ptr %4, align 8, !tbaa !88
  %27 = load ptr, ptr %7, align 8, !tbaa !37
  %28 = load ptr, ptr %7, align 8, !tbaa !37
  %29 = getelementptr inbounds nuw %struct.object, ptr %28, i32 0, i32 1
  %30 = call ptr @oid_to_hex(ptr noundef %29)
  call void @add_pending_object(ptr noundef %26, ptr noundef %27, ptr noundef %30)
  %31 = load ptr, ptr %5, align 8, !tbaa !91
  %32 = getelementptr inbounds nuw %struct.commit_list, ptr %31, i32 0, i32 1
  %33 = load ptr, ptr %32, align 8, !tbaa !94
  store ptr %33, ptr %5, align 8, !tbaa !91
  call void @llvm.lifetime.end.p0(i64 8, ptr %7) #12
  br label %8, !llvm.loop !426

34:                                               ; preds = %8
  ret void
}