; Function Attrs: nounwind uwtable
define internal fastcc void @add_pending_commit_list(ptr noundef %0, ptr noundef readonly %1, i32 noundef %2) unnamed_addr #2 {
  %.not7 = icmp eq ptr %1, null
  br i1 %.not7, label %._crit_edge, label %.lr.ph

.lr.ph:                                           ; preds = %3
  %4 = shl i32 %2, 4
  br label %5

5:                                                ; preds = %.lr.ph, %5
  %.08 = phi ptr [ %1, %.lr.ph ], [ %12, %5 ]
  %6 = load ptr, ptr %.08, align 8, !tbaa !59
  %7 = load i32, ptr %6, align 4
  %8 = or i32 %7, %4
  store i32 %8, ptr %6, align 4
  %9 = getelementptr inbounds nuw i8, ptr %6, i64 4
  %10 = tail call ptr @oid_to_hex(ptr noundef nonnull %9) #26
  tail call fastcc void @add_pending_object_with_path(ptr noundef %0, ptr noundef nonnull %6, ptr noundef %10, i32 noundef 12288, ptr noundef null)
  %11 = getelementptr inbounds nuw i8, ptr %.08, i64 8
  %12 = load ptr, ptr %11, align 8, !tbaa !251
  %.not = icmp eq ptr %12, null
  br i1 %.not, label %._crit_edge, label %5, !llvm.loop !253

._crit_edge:                                      ; preds = %5, %3
  ret void
}